; ModuleID = '16/199.c'
source_filename = "16/199.c"
target datalayout = "e-m:e-p270:32:32-p271:32:32-p272:64:64-i64:64-f80:128-n8:16:32:64-S128"
target triple = "x86_64-pc-linux-gnu"

; Function Attrs: noinline nounwind uwtable
define dso_local void @main() #0 {
  %1 = alloca [5 x i32], align 16
  %2 = alloca i32, align 4
  %3 = alloca i32, align 4
  store i32 0, i32* %2, align 4
  br label %4

4:                                                ; preds = %26, %0
  %5 = load i32, i32* %2, align 4
  %6 = icmp slt i32 %5, 5
  br i1 %6, label %7, label %29

7:                                                ; preds = %4
  %8 = call i32 @getchar()
  %9 = load i32, i32* %2, align 4
  %10 = sext i32 %9 to i64
  %11 = getelementptr inbounds [5 x i32], [5 x i32]* %1, i64 0, i64 %10
  store i32 %8, i32* %11, align 4
  %12 = load i32, i32* %2, align 4
  %13 = sext i32 %12 to i64
  %14 = getelementptr inbounds [5 x i32], [5 x i32]* %1, i64 0, i64 %13
  %15 = load i32, i32* %14, align 4
  %16 = icmp slt i32 %15, 48
  br i1 %16, label %23, label %17

17:                                               ; preds = %7
  %18 = load i32, i32* %2, align 4
  %19 = sext i32 %18 to i64
  %20 = getelementptr inbounds [5 x i32], [5 x i32]* %1, i64 0, i64 %19
  %21 = load i32, i32* %20, align 4
  %22 = icmp sgt i32 %21, 57
  br i1 %22, label %23, label %25

23:                                               ; preds = %17, %7
  %24 = load i32, i32* %2, align 4
  store i32 %24, i32* %3, align 4
  br label %29

25:                                               ; preds = %17
  br label %26

26:                                               ; preds = %25
  %27 = load i32, i32* %2, align 4
  %28 = add nsw i32 %27, 1
  store i32 %28, i32* %2, align 4
  br label %4

29:                                               ; preds = %23, %4
  %30 = load i32, i32* %3, align 4
  store i32 %30, i32* %2, align 4
  br label %31

31:                                               ; preds = %40, %29
  %32 = load i32, i32* %2, align 4
  %33 = icmp sge i32 %32, 0
  br i1 %33, label %34, label %43

34:                                               ; preds = %31
  %35 = load i32, i32* %2, align 4
  %36 = sext i32 %35 to i64
  %37 = getelementptr inbounds [5 x i32], [5 x i32]* %1, i64 0, i64 %36
  %38 = load i32, i32* %37, align 4
  %39 = call i32 @putchar(i32 %38)
  br label %40

40:                                               ; preds = %34
  %41 = load i32, i32* %2, align 4
  %42 = add nsw i32 %41, -1
  store i32 %42, i32* %2, align 4
  br label %31

43:                                               ; preds = %31
  ret void
}

declare dso_local i32 @getchar() #1

declare dso_local i32 @putchar(i32) #1


!llvm.module.flags = !{!0}
!llvm.ident = !{!1}

!0 = !{i32 1, !"wchar_size", i32 4}
!1 = !{!"clang version 10.0.0-4ubuntu1 "}
