; ModuleID = 'source-C-CXX/15/199.c'
source_filename = "source-C-CXX/15/199.c"
target datalayout = "e-m:e-p270:32:32-p271:32:32-p272:64:64-i64:64-f80:128-n8:16:32:64-S128"
target triple = "x86_64-pc-linux-gnu"

%struct._IO_FILE = type { i32, i8*, i8*, i8*, i8*, i8*, i8*, i8*, i8*, i8*, i8*, i8*, %struct._IO_marker*, %struct._IO_FILE*, i32, i32, i64, i16, i8, [1 x i8], i8*, i64, %struct._IO_codecvt*, %struct._IO_wide_data*, %struct._IO_FILE*, i8*, i64, i32, [20 x i8] }
%struct._IO_marker = type opaque
%struct._IO_codecvt = type opaque
%struct._IO_wide_data = type opaque

@stdin = external local_unnamed_addr global %struct._IO_FILE*, align 8
@stdout = external local_unnamed_addr global %struct._IO_FILE*, align 8

; Function Attrs: nofree nounwind sspstrong uwtable
define dso_local void @main() local_unnamed_addr #0 {
  %1 = alloca [5 x i32], align 16
  %2 = bitcast [5 x i32]* %1 to i8*
  call void @llvm.lifetime.start.p0i8(i64 20, i8* nonnull %2) #3
  %3 = load %struct._IO_FILE*, %struct._IO_FILE** @stdin, align 8, !tbaa !5
  %4 = tail call i32 @getc(%struct._IO_FILE* %3) #3
  %5 = getelementptr inbounds [5 x i32], [5 x i32]* %1, i64 0, i64 0
  store i32 %4, i32* %5, align 16, !tbaa !9
  %6 = add i32 %4, -48
  %7 = icmp ugt i32 %6, 9
  br i1 %7, label %14, label %8

8:                                                ; preds = %0
  %9 = load %struct._IO_FILE*, %struct._IO_FILE** @stdin, align 8, !tbaa !5
  %10 = tail call i32 @getc(%struct._IO_FILE* %9) #3
  %11 = getelementptr inbounds [5 x i32], [5 x i32]* %1, i64 0, i64 1
  store i32 %10, i32* %11, align 4, !tbaa !9
  %12 = add i32 %10, -48
  %13 = icmp ugt i32 %12, 9
  br i1 %13, label %14, label %25

14:                                               ; preds = %37, %0, %8, %25, %31
  %15 = phi i64 [ %43, %37 ], [ 3, %31 ], [ 2, %25 ], [ 1, %8 ], [ 0, %0 ]
  br label %16

16:                                               ; preds = %14, %16
  %17 = phi i64 [ %22, %16 ], [ %15, %14 ]
  %18 = getelementptr inbounds [5 x i32], [5 x i32]* %1, i64 0, i64 %17
  %19 = load i32, i32* %18, align 4, !tbaa !9
  %20 = load %struct._IO_FILE*, %struct._IO_FILE** @stdout, align 8, !tbaa !5
  %21 = tail call i32 @putc(i32 %19, %struct._IO_FILE* %20) #3
  %22 = add nsw i64 %17, -1
  %23 = icmp sgt i64 %17, 0
  br i1 %23, label %16, label %24, !llvm.loop !11

24:                                               ; preds = %16
  call void @llvm.lifetime.end.p0i8(i64 20, i8* nonnull %2) #3
  ret void

25:                                               ; preds = %8
  %26 = load %struct._IO_FILE*, %struct._IO_FILE** @stdin, align 8, !tbaa !5
  %27 = tail call i32 @getc(%struct._IO_FILE* %26) #3
  %28 = getelementptr inbounds [5 x i32], [5 x i32]* %1, i64 0, i64 2
  store i32 %27, i32* %28, align 8, !tbaa !9
  %29 = add i32 %27, -48
  %30 = icmp ugt i32 %29, 9
  br i1 %30, label %14, label %31

31:                                               ; preds = %25
  %32 = load %struct._IO_FILE*, %struct._IO_FILE** @stdin, align 8, !tbaa !5
  %33 = tail call i32 @getc(%struct._IO_FILE* %32) #3
  %34 = getelementptr inbounds [5 x i32], [5 x i32]* %1, i64 0, i64 3
  store i32 %33, i32* %34, align 4, !tbaa !9
  %35 = add i32 %33, -48
  %36 = icmp ugt i32 %35, 9
  br i1 %36, label %14, label %37

37:                                               ; preds = %31
  %38 = load %struct._IO_FILE*, %struct._IO_FILE** @stdin, align 8, !tbaa !5
  %39 = tail call i32 @getc(%struct._IO_FILE* %38) #3
  %40 = getelementptr inbounds [5 x i32], [5 x i32]* %1, i64 0, i64 4
  store i32 %39, i32* %40, align 16, !tbaa !9
  %41 = add i32 %39, -48
  %42 = icmp ugt i32 %41, 9
  %43 = select i1 %42, i64 4, i64 5
  br label %14
}

; Function Attrs: argmemonly mustprogress nofree nosync nounwind willreturn
declare void @llvm.lifetime.start.p0i8(i64 immarg, i8* nocapture) #1

; Function Attrs: argmemonly mustprogress nofree nosync nounwind willreturn
declare void @llvm.lifetime.end.p0i8(i64 immarg, i8* nocapture) #1

; Function Attrs: nofree nounwind
declare noundef i32 @getc(%struct._IO_FILE* nocapture noundef) local_unnamed_addr #2

; Function Attrs: nofree nounwind
declare noundef i32 @putc(i32 noundef, %struct._IO_FILE* nocapture noundef) local_unnamed_addr #2


!llvm.module.flags = !{!0, !1, !2, !3}
!llvm.ident = !{!4}

!0 = !{i32 1, !"wchar_size", i32 4}
!1 = !{i32 7, !"PIC Level", i32 2}
!2 = !{i32 7, !"PIE Level", i32 2}
!3 = !{i32 7, !"uwtable", i32 1}
!4 = !{!"clang version 13.0.0"}
!5 = !{!6, !6, i64 0}
!6 = !{!"any pointer", !7, i64 0}
!7 = !{!"omnipotent char", !8, i64 0}
!8 = !{!"Simple C/C++ TBAA"}
!9 = !{!10, !10, i64 0}
!10 = !{!"int", !7, i64 0}
!11 = distinct !{!11, !12}
!12 = !{!"llvm.loop.mustprogress"}
